; Function Attrs: mustprogress uwtable
define hidden void @_ZN4cvc58internal13preprocessing6passes8BVToBool14addToBoolCacheENS0_12NodeTemplateILb0EEENS4_ILb1EEE(ptr noundef nonnull align 8 dereferenceable(216) %this, ptr nocapture noundef readonly %term, ptr nocapture noundef readonly %new_term) local_unnamed_addr #3 align 2 personality ptr @__gxx_personality_v0 {
entry:
  %ref.tmp = alloca %"class.cvc5::internal::NodeTemplate", align 8
  %d_boolCache = getelementptr inbounds i8, ptr %this, i64 120
  %0 = load ptr, ptr %term, align 8
  store ptr %0, ptr %ref.tmp, align 8
  %bf.load.i.i = load i64, ptr %0, align 8
  %bf.lshr.i.i = lshr i64 %bf.load.i.i, 40
  %1 = trunc i64 %bf.lshr.i.i to i32
  %bf.cast.i.i = and i32 %1, 1048575
  %cmp.i.i = icmp ult i32 %bf.cast.i.i, 1048574
  br i1 %cmp.i.i, label %if.then.i.i, label %if.else.i.i

if.then.i.i:                                      ; preds = %entry
  %bf.value.i.i = add i64 %bf.load.i.i, 1099511627776
  %bf.shl.i.i = and i64 %bf.value.i.i, 1152920405095219200
  %bf.clear7.i.i = and i64 %bf.load.i.i, -1152920405095219201
  %bf.set.i.i = or disjoint i64 %bf.shl.i.i, %bf.clear7.i.i
  store i64 %bf.set.i.i, ptr %0, align 8
  br label %_ZN4cvc58internal12NodeTemplateILb1EEC2ERKNS1_ILb0EEE.exit

if.else.i.i:                                      ; preds = %entry
  %cmp12.i.i = icmp eq i32 %bf.cast.i.i, 1048574
  br i1 %cmp12.i.i, label %if.then13.i.i, label %_ZN4cvc58internal12NodeTemplateILb1EEC2ERKNS1_ILb0EEE.exit

if.then13.i.i:                                    ; preds = %if.else.i.i
  %bf.set23.i.i = or i64 %bf.load.i.i, 1152920405095219200
  store i64 %bf.set23.i.i, ptr %0, align 8
  tail call void @_ZN4cvc58internal4expr9NodeValue20markRefCountMaxedOutEv(ptr noundef nonnull align 8 dereferenceable(16) %0)
  br label %_ZN4cvc58internal12NodeTemplateILb1EEC2ERKNS1_ILb0EEE.exit

_ZN4cvc58internal12NodeTemplateILb1EEC2ERKNS1_ILb0EEE.exit: ; preds = %if.then.i.i, %if.else.i.i, %if.then13.i.i
  %call.i1 = invoke noundef nonnull align 8 dereferenceable(8) ptr @_ZNSt8__detail9_Map_baseIN4cvc58internal12NodeTemplateILb1EEESt4pairIKS4_S4_ESaIS7_ENS_10_Select1stESt8equal_toIS4_ESt4hashIS4_ENS_18_Mod_range_hashingENS_20_Default_ranged_hashENS_20_Prime_rehash_policyENS_17_Hashtable_traitsILb1ELb0ELb1EEELb1EEixEOS4_(ptr noundef nonnull align 1 dereferenceable(1) %d_boolCache, ptr noundef nonnull align 8 dereferenceable(8) %ref.tmp)
          to label %invoke.cont unwind label %lpad

invoke.cont:                                      ; preds = %_ZN4cvc58internal12NodeTemplateILb1EEC2ERKNS1_ILb0EEE.exit
  %2 = load ptr, ptr %call.i1, align 8
  %3 = load ptr, ptr %new_term, align 8
  %cmp.not.i = icmp eq ptr %2, %3
  br i1 %cmp.not.i, label %invoke.cont2, label %if.then.i

if.then.i:                                        ; preds = %invoke.cont
  %bf.load.i.i2 = load i64, ptr %2, align 8
  %4 = and i64 %bf.load.i.i2, 1152920405095219200
  %cmp.not.i.i = icmp eq i64 %4, 1152920405095219200
  br i1 %cmp.not.i.i, label %_ZN4cvc58internal4expr9NodeValue3decEv.exit.i, label %if.then.i.i3

if.then.i.i3:                                     ; preds = %if.then.i
  %bf.value.i.i4 = add i64 %bf.load.i.i2, 1152920405095219200
  %bf.shl.i.i5 = and i64 %bf.value.i.i4, 1152920405095219200
  %bf.clear7.i.i6 = and i64 %bf.load.i.i2, -1152920405095219201
  %bf.set.i.i7 = or disjoint i64 %bf.shl.i.i5, %bf.clear7.i.i6
  store i64 %bf.set.i.i7, ptr %2, align 8
  %cmp12.i.i8 = icmp eq i64 %bf.shl.i.i5, 0
  br i1 %cmp12.i.i8, label %if.then13.i.i14, label %_ZN4cvc58internal4expr9NodeValue3decEv.exit.i

if.then13.i.i14:                                  ; preds = %if.then.i.i3
  invoke void @_ZN4cvc58internal4expr9NodeValue15markForDeletionEv(ptr noundef nonnull align 8 dereferenceable(16) %2)
          to label %_ZN4cvc58internal4expr9NodeValue3decEv.exit.i unwind label %lpad

_ZN4cvc58internal4expr9NodeValue3decEv.exit.i:    ; preds = %if.then13.i.i14, %if.then.i.i3, %if.then.i
  %5 = load ptr, ptr %new_term, align 8
  store ptr %5, ptr %call.i1, align 8
  %bf.load.i2.i = load i64, ptr %5, align 8
  %bf.lshr.i.i9 = lshr i64 %bf.load.i2.i, 40
  %6 = trunc i64 %bf.lshr.i.i9 to i32
  %bf.cast.i.i10 = and i32 %6, 1048575
  %cmp.i.i11 = icmp ult i32 %bf.cast.i.i10, 1048574
  br i1 %cmp.i.i11, label %if.then.i5.i, label %if.else.i.i12

if.then.i5.i:                                     ; preds = %_ZN4cvc58internal4expr9NodeValue3decEv.exit.i
  %bf.value.i6.i = add i64 %bf.load.i2.i, 1099511627776
  %bf.shl.i7.i = and i64 %bf.value.i6.i, 1152920405095219200
  %bf.clear7.i8.i = and i64 %bf.load.i2.i, -1152920405095219201
  %bf.set.i9.i = or disjoint i64 %bf.shl.i7.i, %bf.clear7.i8.i
  store i64 %bf.set.i9.i, ptr %5, align 8
  br label %invoke.cont2

if.else.i.i12:                                    ; preds = %_ZN4cvc58internal4expr9NodeValue3decEv.exit.i
  %cmp12.i3.i = icmp eq i32 %bf.cast.i.i10, 1048574
  br i1 %cmp12.i3.i, label %if.then13.i4.i, label %invoke.cont2

if.then13.i4.i:                                   ; preds = %if.else.i.i12
  %bf.set23.i.i13 = or i64 %bf.load.i2.i, 1152920405095219200
  store i64 %bf.set23.i.i13, ptr %5, align 8
  invoke void @_ZN4cvc58internal4expr9NodeValue20markRefCountMaxedOutEv(ptr noundef nonnull align 8 dereferenceable(16) %5)
          to label %invoke.cont2 unwind label %lpad

invoke.cont2:                                     ; preds = %if.else.i.i12, %if.then.i5.i, %invoke.cont, %if.then13.i4.i
  %7 = load ptr, ptr %ref.tmp, align 8
  %bf.load.i.i16 = load i64, ptr %7, align 8
  %8 = and i64 %bf.load.i.i16, 1152920405095219200
  %cmp.not.i.i17 = icmp eq i64 %8, 1152920405095219200
  br i1 %cmp.not.i.i17, label %_ZN4cvc58internal12NodeTemplateILb1EED2Ev.exit, label %if.then.i.i18

if.then.i.i18:                                    ; preds = %invoke.cont2
  %bf.value.i.i19 = add i64 %bf.load.i.i16, 1152920405095219200
  %bf.shl.i.i20 = and i64 %bf.value.i.i19, 1152920405095219200
  %bf.clear7.i.i21 = and i64 %bf.load.i.i16, -1152920405095219201
  %bf.set.i.i22 = or disjoint i64 %bf.shl.i.i20, %bf.clear7.i.i21
  store i64 %bf.set.i.i22, ptr %7, align 8
  %cmp12.i.i23 = icmp eq i64 %bf.shl.i.i20, 0
  br i1 %cmp12.i.i23, label %if.then13.i.i24, label %_ZN4cvc58internal12NodeTemplateILb1EED2Ev.exit

if.then13.i.i24:                                  ; preds = %if.then.i.i18
  invoke void @_ZN4cvc58internal4expr9NodeValue15markForDeletionEv(ptr noundef nonnull align 8 dereferenceable(16) %7)
          to label %_ZN4cvc58internal12NodeTemplateILb1EED2Ev.exit unwind label %terminate.lpad.i

terminate.lpad.i:                                 ; preds = %if.then13.i.i24
  %9 = landingpad { ptr, i32 }
          catch ptr null
  %10 = extractvalue { ptr, i32 } %9, 0
  call void @__clang_call_terminate(ptr %10) #17
  unreachable

_ZN4cvc58internal12NodeTemplateILb1EED2Ev.exit:   ; preds = %invoke.cont2, %if.then.i.i18, %if.then13.i.i24
  ret void

lpad:                                             ; preds = %if.then13.i4.i, %if.then13.i.i14, %_ZN4cvc58internal12NodeTemplateILb1EEC2ERKNS1_ILb0EEE.exit
  %11 = landingpad { ptr, i32 }
          cleanup
  call void @_ZN4cvc58internal12NodeTemplateILb1EED2Ev(ptr noundef nonnull align 8 dereferenceable(8) %ref.tmp) #16
  resume { ptr, i32 } %11
}